; Function Attrs: mustprogress nofree norecurse nosync nounwind willreturn memory(read, inaccessiblemem: none) uwtable
define internal range(i32 0, 2) i32 @filter_iterator(ptr noundef readonly captures(address_is_null) %0, ptr noundef readonly captures(none) %1) #7 {
  %3 = load i16, ptr %1, align 2, !tbaa !35
  %4 = icmp eq ptr %0, null
  br i1 %4, label %ossl_ht_fz_FUZZER_VALUE_from_value.exit.thread, label %5

5:                                                ; preds = %2
  %6 = getelementptr inbounds nuw i8, ptr %0, i64 8
  %7 = load ptr, ptr %6, align 8, !tbaa !11
  %.not.i = icmp eq ptr %7, @fz_FUZZER_VALUE_id
  br i1 %.not.i, label %ossl_ht_fz_FUZZER_VALUE_from_value.exit, label %ossl_ht_fz_FUZZER_VALUE_from_value.exit.thread

ossl_ht_fz_FUZZER_VALUE_from_value.exit:          ; preds = %5
  %8 = load ptr, ptr %0, align 8, !tbaa !17
  %.not = icmp eq ptr %8, null
  br i1 %.not, label %ossl_ht_fz_FUZZER_VALUE_from_value.exit.thread, label %9

9:                                                ; preds = %ossl_ht_fz_FUZZER_VALUE_from_value.exit
  %10 = load ptr, ptr @prediction_table, align 8, !tbaa !4
  %11 = zext i16 %3 to i64
  %12 = getelementptr inbounds nuw %struct.fuzzer_value_st, ptr %10, i64 %11
  %13 = icmp eq ptr %8, %12
  br i1 %13, label %14, label %ossl_ht_fz_FUZZER_VALUE_from_value.exit.thread

ossl_ht_fz_FUZZER_VALUE_from_value.exit.thread:   ; preds = %5, %2, %9, %ossl_ht_fz_FUZZER_VALUE_from_value.exit
  br label %14

14:                                               ; preds = %9, %ossl_ht_fz_FUZZER_VALUE_from_value.exit.thread
  %.0 = phi i32 [ 0, %ossl_ht_fz_FUZZER_VALUE_from_value.exit.thread ], [ 1, %9 ]
  ret i32 %.0
}